target datalayout = "e-m:e-p270:32:32-p271:32:32-p272:64:64-i64:64-i128:128-f80:128-n8:16:32:64-S128"
target triple = "x86_64-pc-linux-gnu"

; Function Attrs: inlinehint nounwind uwtable
define internal void @rgb15to16_c(ptr noundef %0, ptr noundef %1, i32 noundef %2) #4 {
  %4 = alloca ptr, align 8
  %5 = alloca ptr, align 8
  %6 = alloca i32, align 4
  %7 = alloca ptr, align 8
  %8 = alloca ptr, align 8
  %9 = alloca ptr, align 8
  %10 = alloca ptr, align 8
  %11 = alloca i32, align 4
  %12 = alloca i16, align 2
  store ptr %0, ptr %4, align 8, !tbaa !4
  store ptr %1, ptr %5, align 8, !tbaa !4
  store i32 %2, ptr %6, align 4, !tbaa !9
  call void @llvm.lifetime.start.p0(i64 8, ptr %7) #5
  %13 = load ptr, ptr %5, align 8, !tbaa !4
  store ptr %13, ptr %7, align 8, !tbaa !4
  call void @llvm.lifetime.start.p0(i64 8, ptr %8) #5
  %14 = load ptr, ptr %4, align 8, !tbaa !4
  store ptr %14, ptr %8, align 8, !tbaa !4
  call void @llvm.lifetime.start.p0(i64 8, ptr %9) #5
  %15 = load ptr, ptr %8, align 8, !tbaa !4
  %16 = load i32, ptr %6, align 4, !tbaa !9
  %17 = sext i32 %16 to i64
  %18 = getelementptr inbounds i8, ptr %15, i64 %17
  store ptr %18, ptr %9, align 8, !tbaa !4
  call void @llvm.lifetime.start.p0(i64 8, ptr %10) #5
  %19 = load ptr, ptr %9, align 8, !tbaa !4
  %20 = getelementptr inbounds i8, ptr %19, i64 -3
  store ptr %20, ptr %10, align 8, !tbaa !4
  br label %21

21:                                               ; preds = %25, %3
  %22 = load ptr, ptr %8, align 8, !tbaa !4
  %23 = load ptr, ptr %10, align 8, !tbaa !4
  %24 = icmp ult ptr %22, %23
  br i1 %24, label %25, label %38

25:                                               ; preds = %21
  call void @llvm.lifetime.start.p0(i64 4, ptr %11) #5
  %26 = load ptr, ptr %8, align 8, !tbaa !4
  %27 = load i32, ptr %26, align 4, !tbaa !9
  store i32 %27, ptr %11, align 4, !tbaa !9
  %28 = load i32, ptr %11, align 4, !tbaa !9
  %29 = and i32 %28, 2147450879
  %30 = load i32, ptr %11, align 4, !tbaa !9
  %31 = and i32 %30, 2145419232
  %32 = add i32 %29, %31
  %33 = load ptr, ptr %7, align 8, !tbaa !4
  store i32 %32, ptr %33, align 4, !tbaa !9
  %34 = load ptr, ptr %7, align 8, !tbaa !4
  %35 = getelementptr inbounds i8, ptr %34, i64 4
  store ptr %35, ptr %7, align 8, !tbaa !4
  %36 = load ptr, ptr %8, align 8, !tbaa !4
  %37 = getelementptr inbounds i8, ptr %36, i64 4
  store ptr %37, ptr %8, align 8, !tbaa !4
  call void @llvm.lifetime.end.p0(i64 4, ptr %11) #5
  br label %21, !llvm.loop !52

38:                                               ; preds = %21
  %39 = load ptr, ptr %8, align 8, !tbaa !4
  %40 = load ptr, ptr %9, align 8, !tbaa !4
  %41 = icmp ult ptr %39, %40
  br i1 %41, label %42, label %54

42:                                               ; preds = %38
  call void @llvm.lifetime.start.p0(i64 2, ptr %12) #5
  %43 = load ptr, ptr %8, align 8, !tbaa !4
  %44 = load i16, ptr %43, align 2, !tbaa !22
  store i16 %44, ptr %12, align 2, !tbaa !22
  %45 = load i16, ptr %12, align 2, !tbaa !22
  %46 = zext i16 %45 to i32
  %47 = and i32 %46, 32767
  %48 = load i16, ptr %12, align 2, !tbaa !22
  %49 = zext i16 %48 to i32
  %50 = and i32 %49, 32736
  %51 = add nsw i32 %47, %50
  %52 = trunc i32 %51 to i16
  %53 = load ptr, ptr %7, align 8, !tbaa !4
  store i16 %52, ptr %53, align 2, !tbaa !22
  call void @llvm.lifetime.end.p0(i64 2, ptr %12) #5
  br label %54

54:                                               ; preds = %42, %38
  call void @llvm.lifetime.end.p0(i64 8, ptr %10) #5
  call void @llvm.lifetime.end.p0(i64 8, ptr %9) #5
  call void @llvm.lifetime.end.p0(i64 8, ptr %8) #5
  call void @llvm.lifetime.end.p0(i64 8, ptr %7) #5
  ret void
}