; Function Attrs: inlinehint nofree norecurse nosync nounwind memory(argmem: readwrite) uwtable
define internal void @rgb15to16_c(ptr noundef readonly captures(address) %0, ptr noundef writeonly captures(none) %1, i32 noundef %2) #3 {
  %4 = sext i32 %2 to i64
  %5 = getelementptr inbounds i8, ptr %0, i64 %4
  %6 = getelementptr inbounds i8, ptr %5, i64 -3
  %7 = icmp ult ptr %0, %6
  br i1 %7, label %.lr.ph, label %._crit_edge

.lr.ph:                                           ; preds = %3, %.lr.ph
  %.020 = phi ptr [ %12, %.lr.ph ], [ %1, %3 ]
  %.01819 = phi ptr [ %13, %.lr.ph ], [ %0, %3 ]
  %8 = load i32, ptr %.01819, align 4, !tbaa !4
  %9 = and i32 %8, 2147450879
  %10 = and i32 %8, 2145419232
  %11 = add nuw i32 %9, %10
  store i32 %11, ptr %.020, align 4, !tbaa !4
  %12 = getelementptr inbounds nuw i8, ptr %.020, i64 4
  %13 = getelementptr inbounds nuw i8, ptr %.01819, i64 4
  %14 = icmp ult ptr %13, %6
  br i1 %14, label %.lr.ph, label %._crit_edge, !llvm.loop !46

._crit_edge:                                      ; preds = %.lr.ph, %3
  %.018.lcssa = phi ptr [ %0, %3 ], [ %13, %.lr.ph ]
  %.0.lcssa = phi ptr [ %1, %3 ], [ %12, %.lr.ph ]
  %15 = icmp ult ptr %.018.lcssa, %5
  br i1 %15, label %16, label %21

16:                                               ; preds = %._crit_edge
  %17 = load i16, ptr %.018.lcssa, align 2, !tbaa !16
  %18 = and i16 %17, 32767
  %19 = and i16 %17, 32736
  %20 = add nuw i16 %18, %19
  store i16 %20, ptr %.0.lcssa, align 2, !tbaa !16
  br label %21

21:                                               ; preds = %16, %._crit_edge
  ret void
}